; Function Attrs: nounwind uwtable
define hidden range(i32 -16, 1) i32 @mbedtls_mpi_safe_cond_swap(ptr noundef %0, ptr noundef %1, i8 noundef zeroext %2) local_unnamed_addr #0 {
  %4 = icmp eq ptr %0, %1
  br i1 %4, label %mbedtls_mpi_grow.exit, label %5

5:                                                ; preds = %3
  %6 = zext i8 %2 to i64
  %7 = tail call i64 asm sideeffect "mov  $1, $0                                \0A\09neg  $0                                      \0A\09or   $1, $0                                \0A\09sar  $$63, $0                                 \0A\09", "=&{ax},{di},~{dirflag},~{fpsr},~{flags}"(i64 range(i64 0, 256) %6) #16, !srcloc !11
  %8 = getelementptr inbounds nuw i8, ptr %1, i64 10
  %9 = load i16, ptr %8, align 2, !tbaa !3
  %10 = zext i16 %9 to i64
  %11 = icmp ugt i16 %9, 10000
  br i1 %11, label %mbedtls_mpi_grow.exit, label %12

12:                                               ; preds = %5
  %13 = getelementptr inbounds nuw i8, ptr %0, i64 10
  %14 = load i16, ptr %13, align 2, !tbaa !3
  %15 = zext i16 %14 to i64
  %16 = icmp ugt i16 %9, %14
  br i1 %16, label %17, label %24

17:                                               ; preds = %12
  %18 = tail call noalias ptr @calloc(i64 noundef %10, i64 noundef 8) #17
  %19 = icmp eq ptr %18, null
  br i1 %19, label %mbedtls_mpi_grow.exit, label %20

20:                                               ; preds = %17
  %21 = load ptr, ptr %0, align 8, !tbaa !12
  %.not.i = icmp eq ptr %21, null
  br i1 %.not.i, label %.thread, label %22

22:                                               ; preds = %20
  %23 = shl nuw nsw i64 %15, 3
  tail call void @llvm.memcpy.p0.p0.i64(ptr nonnull align 8 %18, ptr nonnull align 8 %21, i64 %23, i1 false)
  tail call void @mbedtls_zeroize_and_free(ptr noundef nonnull %21, i64 noundef %23) #16
  br label %.thread

.thread:                                          ; preds = %20, %22
  store i16 %9, ptr %13, align 2, !tbaa !3
  store ptr %18, ptr %0, align 8, !tbaa !12
  br label %26

24:                                               ; preds = %12
  %25 = icmp ugt i16 %14, 10000
  br i1 %25, label %mbedtls_mpi_grow.exit, label %26

26:                                               ; preds = %.thread, %24
  %27 = phi i16 [ %9, %.thread ], [ %14, %24 ]
  %.pre-phi35 = phi i64 [ %10, %.thread ], [ %15, %24 ]
  %28 = load i16, ptr %8, align 2, !tbaa !3
  %29 = zext i16 %28 to i64
  %30 = icmp ugt i16 %27, %28
  br i1 %30, label %31, label %39

31:                                               ; preds = %26
  %32 = tail call noalias ptr @calloc(i64 noundef %.pre-phi35, i64 noundef 8) #17
  %33 = icmp eq ptr %32, null
  br i1 %33, label %mbedtls_mpi_grow.exit, label %34

34:                                               ; preds = %31
  %35 = load ptr, ptr %1, align 8, !tbaa !12
  %.not.i28 = icmp eq ptr %35, null
  br i1 %.not.i28, label %38, label %36

36:                                               ; preds = %34
  %37 = shl nuw nsw i64 %29, 3
  tail call void @llvm.memcpy.p0.p0.i64(ptr nonnull align 8 %32, ptr nonnull align 8 %35, i64 %37, i1 false)
  tail call void @mbedtls_zeroize_and_free(ptr noundef nonnull %35, i64 noundef %37) #16
  br label %38

38:                                               ; preds = %36, %34
  store i16 %27, ptr %8, align 2, !tbaa !3
  store ptr %32, ptr %1, align 8, !tbaa !12
  br label %39

39:                                               ; preds = %38, %26
  %40 = getelementptr inbounds nuw i8, ptr %0, i64 8
  %41 = load i16, ptr %40, align 8, !tbaa !10
  %42 = getelementptr inbounds nuw i8, ptr %1, i64 8
  %43 = load i16, ptr %42, align 8, !tbaa !10
  %44 = sext i16 %43 to i64
  %45 = add nsw i64 %44, 1
  %46 = sext i16 %41 to i64
  %47 = add nsw i64 %46, 1
  %48 = and i64 %45, 4294967295
  %49 = and i64 %47, 4294967295
  %50 = tail call { i64, i64, i64 } asm sideeffect "and  $0, $1                      \0A\09not  $0                              \0A\09and  $0, $2                      \0A\09or   $1, $2                            \0A\09", "=&{di},=&{si},=&{ax},0,1,2,~{dirflag},~{fpsr},~{flags}"(i64 %7, i64 range(i64 0, 4294967296) %48, i64 range(i64 0, 4294967296) %49) #16, !srcloc !16
  %51 = extractvalue { i64, i64, i64 } %50, 2
  %52 = trunc i64 %51 to i16
  %53 = add i16 %52, -1
  store i16 %53, ptr %40, align 8, !tbaa !10
  %54 = load i16, ptr %42, align 8, !tbaa !10
  %55 = sext i16 %54 to i64
  %56 = add nsw i64 %55, 1
  %57 = and i64 %56, 4294967295
  %58 = tail call { i64, i64, i64 } asm sideeffect "and  $0, $1                      \0A\09not  $0                              \0A\09and  $0, $2                      \0A\09or   $1, $2                            \0A\09", "=&{di},=&{si},=&{ax},0,1,2,~{dirflag},~{fpsr},~{flags}"(i64 %7, i64 range(i64 0, 4294967296) %49, i64 range(i64 0, 4294967296) %57) #16, !srcloc !16
  %59 = extractvalue { i64, i64, i64 } %58, 2
  %60 = trunc i64 %59 to i16
  %61 = add i16 %60, -1
  store i16 %61, ptr %42, align 8, !tbaa !10
  %62 = load ptr, ptr %0, align 8, !tbaa !12
  %63 = load ptr, ptr %1, align 8, !tbaa !12
  %64 = load i16, ptr %13, align 2, !tbaa !3
  %65 = zext i16 %64 to i64
  tail call void @mbedtls_mpi_core_cond_swap(ptr noundef %62, ptr noundef %63, i64 noundef %65, i64 noundef %7) #16
  br label %mbedtls_mpi_grow.exit

mbedtls_mpi_grow.exit:                            ; preds = %31, %24, %17, %5, %39, %3
  %.0 = phi i32 [ 0, %3 ], [ 0, %39 ], [ -16, %5 ], [ -16, %17 ], [ -16, %24 ], [ -16, %31 ]
  ret i32 %.0
}